target datalayout = "e-m:e-p270:32:32-p271:32:32-p272:64:64-i64:64-i128:128-f80:128-n8:16:32:64-S128"
target triple = "x86_64-pc-linux-gnu"

%struct.RComplex = type { %struct.RBasic, i64, i64 }
%struct.RBasic = type { i64, i64 }
%union.anon.16 = type { double }
%struct.RFloat = type { %struct.RBasic, double }

@id_arg = internal global i64 0, align 8
@id_PI = internal global i64 0, align 8
@rb_mMath = external global i64, align 8

; Function Attrs: inlinehint nounwind sspstrong uwtable
define internal i64 @RUBY_BIT_ROTR(i64 noundef %0, i32 noundef %1) #3 {
  %3 = alloca i64, align 8
  %4 = alloca i32, align 4
  store i64 %0, ptr %3, align 8, !tbaa !13
  store i32 %1, ptr %4, align 4, !tbaa !11
  %5 = load i64, ptr %3, align 8, !tbaa !13
  %6 = load i32, ptr %4, align 4, !tbaa !11
  %7 = sext i32 %6 to i64
  %8 = call i64 @llvm.fshr.i64(i64 %5, i64 %5, i64 %7)
  ret i64 %8
}

; Function Attrs: inlinehint nounwind sspstrong willreturn memory(read) uwtable
define internal zeroext i1 @RB_DYNAMIC_SYM_P(i64 noundef %0) #5 {
  %2 = alloca i1, align 1
  %3 = alloca i64, align 8
  store i64 %0, ptr %3, align 8, !tbaa !13
  %4 = load i64, ptr %3, align 8, !tbaa !13
  %5 = call zeroext i1 @RB_SPECIAL_CONST_P(i64 noundef %4) #25
  br i1 %5, label %6, label %7

6:                                                ; preds = %1
  store i1 false, ptr %2, align 1
  br label %11

7:                                                ; preds = %1
  %8 = load i64, ptr %3, align 8, !tbaa !13
  %9 = call i32 @RB_BUILTIN_TYPE(i64 noundef %8) #24
  %10 = icmp eq i32 %9, 20
  store i1 %10, ptr %2, align 1
  br label %11

11:                                               ; preds = %7, %6
  %12 = load i1, ptr %2, align 1
  ret i1 %12
}

; Function Attrs: inlinehint nounwind sspstrong willreturn memory(none) uwtable
define internal zeroext i1 @RB_STATIC_SYM_P(i64 noundef %0) #8 {
  %2 = alloca i64, align 8
  %3 = alloca i64, align 8
  store i64 %0, ptr %2, align 8, !tbaa !13
  call void @llvm.lifetime.start.p0(i64 8, ptr %3) #23
  store i64 255, ptr %3, align 8, !tbaa !13
  %4 = load i64, ptr %2, align 8, !tbaa !13
  %5 = and i64 %4, 255
  %6 = icmp eq i64 %5, 12
  call void @llvm.lifetime.end.p0(i64 8, ptr %3) #23
  ret i1 %6
}

; Function Attrs: inlinehint nounwind sspstrong uwtable
define internal double @rb_float_noflonum_value(i64 noundef %0) #3 {
  %2 = alloca i64, align 8
  store i64 %0, ptr %2, align 8, !tbaa !13
  %3 = load i64, ptr %2, align 8, !tbaa !13
  %4 = inttoptr i64 %3 to ptr
  %5 = getelementptr inbounds nuw %struct.RFloat, ptr %4, i32 0, i32 1
  %6 = load double, ptr %5, align 8, !tbaa !46
  ret double %6
}

; Function Attrs: inlinehint nounwind sspstrong uwtable
define internal double @rb_float_flonum_value(i64 noundef %0) #3 {
  %2 = alloca double, align 8
  %3 = alloca i64, align 8
  %4 = alloca %union.anon.16, align 8
  %5 = alloca i64, align 8
  store i64 %0, ptr %3, align 8, !tbaa !13
  %6 = load i64, ptr %3, align 8, !tbaa !13
  %7 = icmp ne i64 %6, -9223372036854775806
  br i1 %7, label %8, label %18

8:                                                ; preds = %1
  call void @llvm.lifetime.start.p0(i64 8, ptr %4) #23
  call void @llvm.lifetime.start.p0(i64 8, ptr %5) #23
  %9 = load i64, ptr %3, align 8, !tbaa !13
  %10 = lshr i64 %9, 63
  store i64 %10, ptr %5, align 8, !tbaa !13
  %11 = load i64, ptr %5, align 8, !tbaa !13
  %12 = sub i64 2, %11
  %13 = load i64, ptr %3, align 8, !tbaa !13
  %14 = and i64 %13, -4
  %15 = or i64 %12, %14
  %16 = call i64 @RUBY_BIT_ROTR(i64 noundef %15, i32 noundef 3)
  store i64 %16, ptr %4, align 8, !tbaa !15
  %17 = load double, ptr %4, align 8, !tbaa !15
  store double %17, ptr %2, align 8
  call void @llvm.lifetime.end.p0(i64 8, ptr %5) #23
  call void @llvm.lifetime.end.p0(i64 8, ptr %4) #23
  br label %19

18:                                               ; preds = %1
  store double 0.000000e+00, ptr %2, align 8
  br label %19

19:                                               ; preds = %18, %8
  %20 = load double, ptr %2, align 8
  ret double %20
}

; Function Attrs: inlinehint nounwind sspstrong willreturn memory(none) uwtable
define internal zeroext i1 @RB_IMMEDIATE_P(i64 noundef %0) #8 {
  %2 = alloca i64, align 8
  store i64 %0, ptr %2, align 8, !tbaa !13
  %3 = load i64, ptr %2, align 8, !tbaa !13
  %4 = and i64 %3, 7
  %5 = icmp ne i64 %4, 0
  ret i1 %5
}

; Function Attrs: inlinehint nounwind sspstrong willreturn memory(read) uwtable
define internal i32 @rb_type(i64 noundef %0) #5 {
  %2 = alloca i32, align 4
  %3 = alloca i64, align 8
  store i64 %0, ptr %3, align 8, !tbaa !13
  %4 = load i64, ptr %3, align 8, !tbaa !13
  %5 = call zeroext i1 @RB_SPECIAL_CONST_P(i64 noundef %4) #25
  br i1 %5, label %9, label %6

6:                                                ; preds = %1
  %7 = load i64, ptr %3, align 8, !tbaa !13
  %8 = call i32 @RB_BUILTIN_TYPE(i64 noundef %7) #24
  store i32 %8, ptr %2, align 4
  br label %36

9:                                                ; preds = %1
  %10 = load i64, ptr %3, align 8, !tbaa !13
  %11 = icmp eq i64 %10, 0
  br i1 %11, label %12, label %13

12:                                               ; preds = %9
  store i32 19, ptr %2, align 4
  br label %36

13:                                               ; preds = %9
  %14 = load i64, ptr %3, align 8, !tbaa !13
  %15 = icmp eq i64 %14, 4
  br i1 %15, label %16, label %17

16:                                               ; preds = %13
  store i32 17, ptr %2, align 4
  br label %36

17:                                               ; preds = %13
  %18 = load i64, ptr %3, align 8, !tbaa !13
  %19 = icmp eq i64 %18, 20
  br i1 %19, label %20, label %21

20:                                               ; preds = %17
  store i32 18, ptr %2, align 4
  br label %36

21:                                               ; preds = %17
  %22 = load i64, ptr %3, align 8, !tbaa !13
  %23 = icmp eq i64 %22, 36
  br i1 %23, label %24, label %25

24:                                               ; preds = %21
  store i32 22, ptr %2, align 4
  br label %36

25:                                               ; preds = %21
  %26 = load i64, ptr %3, align 8, !tbaa !13
  %27 = call zeroext i1 @RB_FIXNUM_P(i64 noundef %26) #25
  br i1 %27, label %28, label %29

28:                                               ; preds = %25
  store i32 21, ptr %2, align 4
  br label %36

29:                                               ; preds = %25
  %30 = load i64, ptr %3, align 8, !tbaa !13
  %31 = call zeroext i1 @RB_STATIC_SYM_P(i64 noundef %30) #25
  br i1 %31, label %32, label %33

32:                                               ; preds = %29
  store i32 20, ptr %2, align 4
  br label %36

33:                                               ; preds = %29
  %34 = load i64, ptr %3, align 8, !tbaa !13
  %35 = call zeroext i1 @RB_FLONUM_P(i64 noundef %34) #25
  call void @llvm.assume(i1 %35)
  store i32 4, ptr %2, align 4
  br label %36

36:                                               ; preds = %33, %32, %28, %24, %20, %16, %12, %6
  %37 = load i32, ptr %2, align 4
  ret i32 %37
}

; Function Attrs: inlinehint nounwind sspstrong willreturn memory(read) uwtable
define internal zeroext i1 @RB_SYMBOL_P(i64 noundef %0) #5 {
  %2 = alloca i64, align 8
  store i64 %0, ptr %2, align 8, !tbaa !13
  %3 = load i64, ptr %2, align 8, !tbaa !13
  %4 = call zeroext i1 @RB_STATIC_SYM_P(i64 noundef %3) #25
  br i1 %4, label %8, label %5

5:                                                ; preds = %1
  %6 = load i64, ptr %2, align 8, !tbaa !13
  %7 = call zeroext i1 @RB_DYNAMIC_SYM_P(i64 noundef %6) #24
  br label %8

8:                                                ; preds = %5, %1
  %9 = phi i1 [ true, %1 ], [ %7, %5 ]
  ret i1 %9
}

; Function Attrs: inlinehint nounwind sspstrong uwtable
define internal double @rb_float_value_inline(i64 noundef %0) #3 {
  %2 = alloca double, align 8
  %3 = alloca i64, align 8
  store i64 %0, ptr %3, align 8, !tbaa !13
  %4 = load i64, ptr %3, align 8, !tbaa !13
  %5 = call zeroext i1 @RB_FLONUM_P(i64 noundef %4) #25
  br i1 %5, label %6, label %9

6:                                                ; preds = %1
  %7 = load i64, ptr %3, align 8, !tbaa !13
  %8 = call double @rb_float_flonum_value(i64 noundef %7)
  store double %8, ptr %2, align 8
  br label %12

9:                                                ; preds = %1
  %10 = load i64, ptr %3, align 8, !tbaa !13
  %11 = call double @rb_float_noflonum_value(i64 noundef %10)
  store double %11, ptr %2, align 8
  br label %12

12:                                               ; preds = %9, %6
  %13 = load double, ptr %2, align 8
  ret double %13
}

; Function Attrs: inlinehint nounwind sspstrong willreturn memory(none) uwtable
define internal zeroext i1 @RB_FLONUM_P(i64 noundef %0) #8 {
  %2 = alloca i64, align 8
  store i64 %0, ptr %2, align 8, !tbaa !13
  %3 = load i64, ptr %2, align 8, !tbaa !13
  %4 = and i64 %3, 3
  %5 = icmp eq i64 %4, 2
  ret i1 %5
}

; Function Attrs: inlinehint nounwind sspstrong willreturn memory(read) uwtable
define internal i32 @RB_BUILTIN_TYPE(i64 noundef %0) #5 {
  %2 = alloca i64, align 8
  %3 = alloca i64, align 8
  store i64 %0, ptr %2, align 8, !tbaa !13
  call void @llvm.lifetime.start.p0(i64 8, ptr %3) #23
  %4 = load i64, ptr %2, align 8, !tbaa !13
  %5 = inttoptr i64 %4 to ptr
  %6 = getelementptr inbounds nuw %struct.RBasic, ptr %5, i32 0, i32 0
  %7 = load i64, ptr %6, align 8, !tbaa !45
  %8 = and i64 %7, 31
  store i64 %8, ptr %3, align 8, !tbaa !13
  %9 = load i64, ptr %3, align 8, !tbaa !13
  %10 = trunc i64 %9 to i32
  call void @llvm.lifetime.end.p0(i64 8, ptr %3) #23
  ret i32 %10
}

; Function Attrs: inlinehint nounwind sspstrong willreturn memory(none) uwtable
define internal zeroext i1 @RB_SPECIAL_CONST_P(i64 noundef %0) #8 {
  %2 = alloca i64, align 8
  store i64 %0, ptr %2, align 8, !tbaa !13
  %3 = load i64, ptr %2, align 8, !tbaa !13
  %4 = icmp eq i64 %3, 0
  br i1 %4, label %8, label %5

5:                                                ; preds = %1
  %6 = load i64, ptr %2, align 8, !tbaa !13
  %7 = call zeroext i1 @RB_IMMEDIATE_P(i64 noundef %6) #25
  br label %8

8:                                                ; preds = %5, %1
  %9 = phi i1 [ true, %1 ], [ %7, %5 ]
  ret i1 %9
}

; Function Attrs: inlinehint nounwind sspstrong willreturn memory(none) uwtable
define internal zeroext i1 @RB_FIXNUM_P(i64 noundef %0) #8 {
  %2 = alloca i64, align 8
  store i64 %0, ptr %2, align 8, !tbaa !13
  %3 = load i64, ptr %2, align 8, !tbaa !13
  %4 = and i64 %3, 1
  %5 = icmp ne i64 %4, 0
  ret i1 %5
}

; Function Attrs: nounwind sspstrong uwtable
define dso_local i64 @rb_complex_arg(i64 noundef %0) #0 {
  %2 = alloca i64, align 8
  %3 = alloca ptr, align 8
  store i64 %0, ptr %2, align 8, !tbaa !13
  call void @llvm.lifetime.start.p0(i64 8, ptr %3) #23
  %4 = load i64, ptr %2, align 8, !tbaa !13
  %5 = inttoptr i64 %4 to ptr
  store ptr %5, ptr %3, align 8, !tbaa !16
  %6 = load ptr, ptr %3, align 8, !tbaa !16
  %7 = getelementptr inbounds nuw %struct.RComplex, ptr %6, i32 0, i32 2
  %8 = load i64, ptr %7, align 8, !tbaa !22
  %9 = load ptr, ptr %3, align 8, !tbaa !16
  %10 = getelementptr inbounds nuw %struct.RComplex, ptr %9, i32 0, i32 1
  %11 = load i64, ptr %10, align 8, !tbaa !19
  %12 = call i64 @rb_math_atan2(i64 noundef %8, i64 noundef %11)
  call void @llvm.lifetime.end.p0(i64 8, ptr %3) #23
  ret i64 %12
}

; Function Attrs: inlinehint nounwind sspstrong willreturn memory(read) uwtable
define internal zeroext i1 @RB_TYPE_P(i64 noundef %0, i32 noundef %1) #5 {
  %3 = alloca i1, align 1
  %4 = alloca i64, align 8
  %5 = alloca i32, align 4
  store i64 %0, ptr %4, align 8, !tbaa !13
  store i32 %1, ptr %5, align 4, !tbaa !11
  %6 = load i32, ptr %5, align 4, !tbaa !11
  %7 = call i1 @llvm.is.constant.i32(i32 %6)
  br i1 %7, label %8, label %12

8:                                                ; preds = %2
  %9 = load i64, ptr %4, align 8, !tbaa !13
  %10 = load i32, ptr %5, align 4, !tbaa !11
  %11 = call zeroext i1 @rbimpl_RB_TYPE_P_fastpath(i64 noundef %9, i32 noundef %10) #24
  store i1 %11, ptr %3, align 1
  br label %17

12:                                               ; preds = %2
  %13 = load i32, ptr %5, align 4, !tbaa !11
  %14 = load i64, ptr %4, align 8, !tbaa !13
  %15 = call i32 @rb_type(i64 noundef %14) #24
  %16 = icmp eq i32 %13, %15
  store i1 %16, ptr %3, align 1
  br label %17

17:                                               ; preds = %12, %8
  %18 = load i1, ptr %3, align 1
  ret i1 %18
}

; Function Attrs: alwaysinline nounwind sspstrong willreturn memory(read) uwtable
define internal zeroext i1 @rbimpl_RB_TYPE_P_fastpath(i64 noundef %0, i32 noundef %1) #6 {
  %3 = alloca i1, align 1
  %4 = alloca i64, align 8
  %5 = alloca i32, align 4
  store i64 %0, ptr %4, align 8, !tbaa !13
  store i32 %1, ptr %5, align 4, !tbaa !11
  %6 = load i32, ptr %5, align 4, !tbaa !11
  %7 = icmp eq i32 %6, 18
  br i1 %7, label %8, label %11

8:                                                ; preds = %2
  %9 = load i64, ptr %4, align 8, !tbaa !13
  %10 = icmp eq i64 %9, 20
  store i1 %10, ptr %3, align 1
  br label %58

11:                                               ; preds = %2
  %12 = load i32, ptr %5, align 4, !tbaa !11
  %13 = icmp eq i32 %12, 19
  br i1 %13, label %14, label %17

14:                                               ; preds = %11
  %15 = load i64, ptr %4, align 8, !tbaa !13
  %16 = icmp eq i64 %15, 0
  store i1 %16, ptr %3, align 1
  br label %58

17:                                               ; preds = %11
  %18 = load i32, ptr %5, align 4, !tbaa !11
  %19 = icmp eq i32 %18, 17
  br i1 %19, label %20, label %23

20:                                               ; preds = %17
  %21 = load i64, ptr %4, align 8, !tbaa !13
  %22 = icmp eq i64 %21, 4
  store i1 %22, ptr %3, align 1
  br label %58

23:                                               ; preds = %17
  %24 = load i32, ptr %5, align 4, !tbaa !11
  %25 = icmp eq i32 %24, 22
  br i1 %25, label %26, label %29

26:                                               ; preds = %23
  %27 = load i64, ptr %4, align 8, !tbaa !13
  %28 = icmp eq i64 %27, 36
  store i1 %28, ptr %3, align 1
  br label %58

29:                                               ; preds = %23
  %30 = load i32, ptr %5, align 4, !tbaa !11
  %31 = icmp eq i32 %30, 21
  br i1 %31, label %32, label %35

32:                                               ; preds = %29
  %33 = load i64, ptr %4, align 8, !tbaa !13
  %34 = call zeroext i1 @RB_FIXNUM_P(i64 noundef %33) #25
  store i1 %34, ptr %3, align 1
  br label %58

35:                                               ; preds = %29
  %36 = load i32, ptr %5, align 4, !tbaa !11
  %37 = icmp eq i32 %36, 20
  br i1 %37, label %38, label %41

38:                                               ; preds = %35
  %39 = load i64, ptr %4, align 8, !tbaa !13
  %40 = call zeroext i1 @RB_SYMBOL_P(i64 noundef %39) #24
  store i1 %40, ptr %3, align 1
  br label %58

41:                                               ; preds = %35
  %42 = load i32, ptr %5, align 4, !tbaa !11
  %43 = icmp eq i32 %42, 4
  br i1 %43, label %44, label %47

44:                                               ; preds = %41
  %45 = load i64, ptr %4, align 8, !tbaa !13
  %46 = call zeroext i1 @RB_FLOAT_TYPE_P(i64 noundef %45) #24
  store i1 %46, ptr %3, align 1
  br label %58

47:                                               ; preds = %41
  %48 = load i64, ptr %4, align 8, !tbaa !13
  %49 = call zeroext i1 @RB_SPECIAL_CONST_P(i64 noundef %48) #25
  br i1 %49, label %50, label %51

50:                                               ; preds = %47
  store i1 false, ptr %3, align 1
  br label %58

51:                                               ; preds = %47
  %52 = load i32, ptr %5, align 4, !tbaa !11
  %53 = load i64, ptr %4, align 8, !tbaa !13
  %54 = call i32 @RB_BUILTIN_TYPE(i64 noundef %53) #24
  %55 = icmp eq i32 %52, %54
  br i1 %55, label %56, label %57

56:                                               ; preds = %51
  store i1 true, ptr %3, align 1
  br label %58

57:                                               ; preds = %51
  store i1 false, ptr %3, align 1
  br label %58

58:                                               ; preds = %57, %56, %50, %44, %38, %32, %26, %20, %14, %8
  %59 = load i1, ptr %3, align 1
  ret i1 %59
}

; Function Attrs: nounwind sspstrong uwtable
define internal i64 @float_arg(i64 noundef %0) #0 {
  %2 = alloca i64, align 8
  %3 = alloca i64, align 8
  store i64 %0, ptr %3, align 8, !tbaa !13
  %4 = load i64, ptr %3, align 8, !tbaa !13
  %5 = call double @rb_float_value_inline(i64 noundef %4)
  %6 = call i1 @llvm.is.fpclass.f64(double %5, i32 3)
  br i1 %6, label %7, label %9

7:                                                ; preds = %1
  %8 = load i64, ptr %3, align 8, !tbaa !13
  store i64 %8, ptr %2, align 8
  br label %18

9:                                                ; preds = %1
  %10 = load i64, ptr %3, align 8, !tbaa !13
  %11 = call i32 @f_tpositive_p(i64 noundef %10)
  %12 = icmp ne i32 %11, 0
  br i1 %12, label %13, label %14

13:                                               ; preds = %9
  store i64 1, ptr %2, align 8
  br label %18

14:                                               ; preds = %9
  %15 = load i64, ptr @rb_mMath, align 8, !tbaa !13
  %16 = load i64, ptr @id_PI, align 8, !tbaa !13
  %17 = call i64 @rb_const_get(i64 noundef %15, i64 noundef %16)
  store i64 %17, ptr %2, align 8
  br label %18

18:                                               ; preds = %14, %13, %7
  %19 = load i64, ptr %2, align 8
  ret i64 %19
}

; Function Attrs: inlinehint nounwind sspstrong willreturn memory(read) uwtable
define internal zeroext i1 @RB_FLOAT_TYPE_P(i64 noundef %0) #5 {
  %2 = alloca i1, align 1
  %3 = alloca i64, align 8
  store i64 %0, ptr %3, align 8, !tbaa !13
  %4 = load i64, ptr %3, align 8, !tbaa !13
  %5 = call zeroext i1 @RB_FLONUM_P(i64 noundef %4) #25
  br i1 %5, label %6, label %7

6:                                                ; preds = %1
  store i1 true, ptr %2, align 1
  br label %15

7:                                                ; preds = %1
  %8 = load i64, ptr %3, align 8, !tbaa !13
  %9 = call zeroext i1 @RB_SPECIAL_CONST_P(i64 noundef %8) #25
  br i1 %9, label %10, label %11

10:                                               ; preds = %7
  store i1 false, ptr %2, align 1
  br label %15

11:                                               ; preds = %7
  %12 = load i64, ptr %3, align 8, !tbaa !13
  %13 = call i32 @RB_BUILTIN_TYPE(i64 noundef %12) #24
  %14 = icmp eq i32 %13, 4
  store i1 %14, ptr %2, align 1
  br label %15

15:                                               ; preds = %11, %10, %6
  %16 = load i1, ptr %2, align 1
  ret i1 %16
}

; Function Attrs: inlinehint nounwind sspstrong willreturn memory(read) uwtable
define internal zeroext i1 @rb_integer_type_p(i64 noundef %0) #5 {
  %2 = alloca i1, align 1
  %3 = alloca i64, align 8
  store i64 %0, ptr %3, align 8, !tbaa !13
  %4 = load i64, ptr %3, align 8, !tbaa !13
  %5 = call zeroext i1 @RB_FIXNUM_P(i64 noundef %4) #25
  br i1 %5, label %6, label %7

6:                                                ; preds = %1
  store i1 true, ptr %2, align 1
  br label %15

7:                                                ; preds = %1
  %8 = load i64, ptr %3, align 8, !tbaa !13
  %9 = call zeroext i1 @RB_SPECIAL_CONST_P(i64 noundef %8) #25
  br i1 %9, label %10, label %11

10:                                               ; preds = %7
  store i1 false, ptr %2, align 1
  br label %15

11:                                               ; preds = %7
  %12 = load i64, ptr %3, align 8, !tbaa !13
  %13 = call i32 @RB_BUILTIN_TYPE(i64 noundef %12) #24
  %14 = icmp eq i32 %13, 10
  store i1 %14, ptr %2, align 1
  br label %15

15:                                               ; preds = %11, %10, %6
  %16 = load i1, ptr %2, align 1
  ret i1 %16
}

; Function Attrs: inlinehint nounwind sspstrong uwtable
define internal i64 @f_arg(i64 noundef %0) #3 {
  %2 = alloca i64, align 8
  %3 = alloca i64, align 8
  store i64 %0, ptr %3, align 8, !tbaa !13
  %4 = load i64, ptr %3, align 8, !tbaa !13
  %5 = call zeroext i1 @rb_integer_type_p(i64 noundef %4) #24
  br i1 %5, label %6, label %9

6:                                                ; preds = %1
  %7 = load i64, ptr %3, align 8, !tbaa !13
  %8 = call i64 @numeric_arg(i64 noundef %7)
  store i64 %8, ptr %2, align 8
  br label %42

9:                                                ; preds = %1
  %10 = load i64, ptr %3, align 8, !tbaa !13
  %11 = call zeroext i1 @RB_FLOAT_TYPE_P(i64 noundef %10) #24
  br i1 %11, label %12, label %15

12:                                               ; preds = %9
  %13 = load i64, ptr %3, align 8, !tbaa !13
  %14 = call i64 @float_arg(i64 noundef %13)
  store i64 %14, ptr %2, align 8
  br label %42

15:                                               ; preds = %9
  br i1 true, label %16, label %19

16:                                               ; preds = %15
  %17 = load i64, ptr %3, align 8, !tbaa !13
  %18 = call zeroext i1 @rbimpl_RB_TYPE_P_fastpath(i64 noundef %17, i32 noundef 15) #24
  br i1 %18, label %22, label %25

19:                                               ; preds = %15
  %20 = load i64, ptr %3, align 8, !tbaa !13
  %21 = call zeroext i1 @RB_TYPE_P(i64 noundef %20, i32 noundef 15) #24
  br i1 %21, label %22, label %25

22:                                               ; preds = %19, %16
  %23 = load i64, ptr %3, align 8, !tbaa !13
  %24 = call i64 @numeric_arg(i64 noundef %23)
  store i64 %24, ptr %2, align 8
  br label %42

25:                                               ; preds = %19, %16
  br i1 true, label %26, label %29

26:                                               ; preds = %25
  %27 = load i64, ptr %3, align 8, !tbaa !13
  %28 = call zeroext i1 @rbimpl_RB_TYPE_P_fastpath(i64 noundef %27, i32 noundef 14) #24
  br i1 %28, label %32, label %35

29:                                               ; preds = %25
  %30 = load i64, ptr %3, align 8, !tbaa !13
  %31 = call zeroext i1 @RB_TYPE_P(i64 noundef %30, i32 noundef 14) #24
  br i1 %31, label %32, label %35

32:                                               ; preds = %29, %26
  %33 = load i64, ptr %3, align 8, !tbaa !13
  %34 = call i64 @rb_complex_arg(i64 noundef %33)
  store i64 %34, ptr %2, align 8
  br label %42

35:                                               ; preds = %29, %26
  br label %36

36:                                               ; preds = %35
  br label %37

37:                                               ; preds = %36
  br label %38

38:                                               ; preds = %37
  %39 = load i64, ptr %3, align 8, !tbaa !13
  %40 = load i64, ptr @id_arg, align 8, !tbaa !13
  %41 = call i64 (i64, i64, i32, ...) @rb_funcall(i64 noundef %39, i64 noundef %40, i32 noundef 0)
  store i64 %41, ptr %2, align 8
  br label %42

42:                                               ; preds = %38, %32, %22, %12, %6
  %43 = load i64, ptr %2, align 8
  ret i64 %43
}