; Function Attrs: inlinehint nounwind sspstrong uwtable
define internal fastcc i64 @f_arg(i64 noundef %0) unnamed_addr #3 {
  %2 = and i64 %0, 1
  %.not.i = icmp eq i64 %2, 0
  br i1 %.not.i, label %3, label %rb_integer_type_p.exit.thread

3:                                                ; preds = %1
  %4 = icmp eq i64 %0, 0
  %5 = and i64 %0, 6
  %6 = icmp ne i64 %5, 0
  %7 = or i1 %4, %6
  br i1 %7, label %rb_integer_type_p.exit.thread17, label %rb_integer_type_p.exit

rb_integer_type_p.exit:                           ; preds = %3
  %8 = inttoptr i64 %0 to ptr
  %9 = load i64, ptr %8, align 8, !tbaa !19
  %10 = and i64 %9, 31
  %11 = icmp eq i64 %10, 10
  br i1 %11, label %rb_integer_type_p.exit.thread, label %rb_integer_type_p.exit.thread17

rb_integer_type_p.exit.thread:                    ; preds = %1, %rb_integer_type_p.exit
  %12 = tail call i64 @numeric_arg(i64 noundef %0)
  br label %float_arg.exit

rb_integer_type_p.exit.thread17:                  ; preds = %3, %rb_integer_type_p.exit
  %13 = and i64 %0, 2
  %.not = icmp eq i64 %13, 0
  br i1 %.not, label %14, label %22

14:                                               ; preds = %rb_integer_type_p.exit.thread17
  %15 = and i64 %0, 4
  %16 = icmp ne i64 %15, 0
  %17 = or i1 %4, %16
  br i1 %17, label %rbimpl_RB_TYPE_P_fastpath.exit.thread, label %RB_FLOAT_TYPE_P.exit

RB_FLOAT_TYPE_P.exit:                             ; preds = %14
  %18 = inttoptr i64 %0 to ptr
  %19 = load i64, ptr %18, align 8, !tbaa !19
  %20 = and i64 %19, 31
  %21 = icmp eq i64 %20, 4
  br i1 %21, label %29, label %rbimpl_RB_TYPE_P_fastpath.exit11

22:                                               ; preds = %rb_integer_type_p.exit.thread17
  %.not.i.i.i = icmp eq i64 %0, -9223372036854775806
  br i1 %.not.i.i.i, label %rb_float_value_inline.exit.thread.i, label %23

23:                                               ; preds = %22
  %.neg.i.i.i = ashr i64 %0, 63
  %24 = add nsw i64 %.neg.i.i.i, 2
  %25 = and i64 %0, -4
  %26 = or i64 %24, %25
  %27 = tail call noundef i64 @llvm.fshl.i64(i64 range(i64 1, 0) %26, i64 range(i64 1, 0) %26, i64 61)
  %28 = bitcast i64 %27 to double
  br label %rb_float_value_inline.exit.i

29:                                               ; preds = %RB_FLOAT_TYPE_P.exit
  %30 = getelementptr inbounds nuw i8, ptr %18, i64 16
  %31 = load double, ptr %30, align 8, !tbaa !21
  br label %rb_float_value_inline.exit.i

rb_float_value_inline.exit.i:                     ; preds = %29, %23
  %.0.i.i = phi double [ %31, %29 ], [ %28, %23 ]
  %32 = fcmp uno double %.0.i.i, 0.000000e+00
  br i1 %32, label %float_arg.exit, label %rb_float_value_inline.exit.thread.i

rb_float_value_inline.exit.thread.i:              ; preds = %rb_float_value_inline.exit.i, %22
  %33 = tail call fastcc i32 @f_tpositive_p(i64 noundef %0)
  %.not.i14 = icmp eq i32 %33, 0
  br i1 %.not.i14, label %34, label %float_arg.exit

34:                                               ; preds = %rb_float_value_inline.exit.thread.i
  %35 = load i64, ptr @rb_mMath, align 8, !tbaa !11
  %36 = load i64, ptr @id_PI, align 8, !tbaa !11
  %37 = tail call i64 @rb_const_get(i64 noundef %35, i64 noundef %36) #17
  br label %float_arg.exit

rbimpl_RB_TYPE_P_fastpath.exit11:                 ; preds = %RB_FLOAT_TYPE_P.exit
  %38 = inttoptr i64 %0 to ptr
  %39 = load i64, ptr %38, align 8, !tbaa !19
  %40 = and i64 %39, 31
  switch i64 %40, label %rbimpl_RB_TYPE_P_fastpath.exit.thread [
    i64 15, label %41
    i64 14, label %43
  ]

41:                                               ; preds = %rbimpl_RB_TYPE_P_fastpath.exit11
  %42 = tail call i64 @numeric_arg(i64 noundef %0)
  br label %float_arg.exit

43:                                               ; preds = %rbimpl_RB_TYPE_P_fastpath.exit11
  %44 = getelementptr inbounds nuw i8, ptr %38, i64 24
  %45 = load i64, ptr %44, align 8, !tbaa !18
  %46 = getelementptr inbounds nuw i8, ptr %38, i64 16
  %47 = load i64, ptr %46, align 8, !tbaa !15
  %48 = tail call i64 @rb_math_atan2(i64 noundef %45, i64 noundef %47) #17
  br label %float_arg.exit

rbimpl_RB_TYPE_P_fastpath.exit.thread:            ; preds = %rbimpl_RB_TYPE_P_fastpath.exit11, %14
  %49 = load i64, ptr @id_arg, align 8, !tbaa !11
  %50 = tail call i64 (i64, i64, i32, ...) @rb_funcall(i64 noundef %0, i64 noundef %49, i32 noundef 0) #17
  br label %float_arg.exit

float_arg.exit:                                   ; preds = %34, %rb_float_value_inline.exit.thread.i, %rb_float_value_inline.exit.i, %rbimpl_RB_TYPE_P_fastpath.exit.thread, %43, %41, %rb_integer_type_p.exit.thread
  %.0 = phi i64 [ %12, %rb_integer_type_p.exit.thread ], [ %42, %41 ], [ %48, %43 ], [ %50, %rbimpl_RB_TYPE_P_fastpath.exit.thread ], [ %37, %34 ], [ %0, %rb_float_value_inline.exit.i ], [ 1, %rb_float_value_inline.exit.thread.i ]
  ret i64 %.0
}